; Function Attrs: mustprogress uwtable
define void @_ZN3gmx19IndexGroupsAndNamesC2ENS_8ArrayRefIK10IndexGroupEE(ptr noundef nonnull align 8 dereferenceable(24) initializes((0, 24)) %0, ptr %1, ptr %2) unnamed_addr #0 align 2 personality ptr @__gxx_personality_v0 {
  tail call void @llvm.memset.p0.i64(ptr noundef nonnull align 8 dereferenceable(24) %0, i8 0, i64 24, i1 false)
  invoke void @_ZNSt6vectorI10IndexGroupSaIS0_EE19_M_range_initializeIN3gmx12ArrayRefIterIKS0_EEEEvT_S8_St20forward_iterator_tag(ptr noundef nonnull align 8 dereferenceable(24) %0, ptr %1, ptr %2)
          to label %_ZNSt6vectorI10IndexGroupSaIS0_EEC2IN3gmx12ArrayRefIterIKS0_EEvEET_S8_RKS1_.exit unwind label %4

4:                                                ; preds = %3
  %5 = landingpad { ptr, i32 }
          cleanup
  %6 = load ptr, ptr %0, align 8, !tbaa !4
  %.not.i.i.i = icmp eq ptr %6, null
  br i1 %.not.i.i.i, label %.body, label %7

7:                                                ; preds = %4
  %8 = getelementptr inbounds nuw i8, ptr %0, i64 16
  %9 = load ptr, ptr %8, align 8, !tbaa !10
  %10 = ptrtoint ptr %9 to i64
  %11 = ptrtoint ptr %6 to i64
  %12 = sub i64 %10, %11
  tail call void @_ZdlPvm(ptr noundef nonnull %6, i64 noundef %12) #25
  br label %.body

_ZNSt6vectorI10IndexGroupSaIS0_EEC2IN3gmx12ArrayRefIterIKS0_EEvEET_S8_RKS1_.exit: ; preds = %3
  ret void

.body:                                            ; preds = %4, %7
  resume { ptr, i32 } %5
}